target datalayout = "e-m:e-p270:32:32-p271:32:32-p272:64:64-i64:64-i128:128-f80:128-n8:16:32:64-S128"
target triple = "x86_64-pc-linux-gnu"

%struct.AVRational = type { i32, i32 }
%struct.PutBitContext = type { i32, i32, ptr, ptr, ptr }
%struct.AVCIExy = type { %struct.AVRational, %struct.AVRational }

@.str.14 = private unnamed_addr constant [43 x i8] c"Internal error, put_bits buffer too small\0A\00", align 1

; Function Attrs: alwaysinline nounwind willreturn memory(none) uwtable
define internal i32 @av_bswap32(i32 noundef %0) #9 {
  %2 = alloca i32, align 4
  store i32 %0, ptr %2, align 4, !tbaa !13
  %3 = load i32, ptr %2, align 4, !tbaa !13
  %4 = shl i32 %3, 8
  %5 = and i32 %4, 65280
  %6 = load i32, ptr %2, align 4, !tbaa !13
  %7 = lshr i32 %6, 8
  %8 = and i32 %7, 255
  %9 = or i32 %5, %8
  %10 = shl i32 %9, 16
  %11 = load i32, ptr %2, align 4, !tbaa !13
  %12 = lshr i32 %11, 16
  %13 = shl i32 %12, 8
  %14 = and i32 %13, 65280
  %15 = load i32, ptr %2, align 4, !tbaa !13
  %16 = lshr i32 %15, 16
  %17 = lshr i32 %16, 8
  %18 = and i32 %17, 255
  %19 = or i32 %14, %18
  %20 = or i32 %10, %19
  ret i32 %20
}

; Function Attrs: inlinehint nounwind uwtable
define internal void @put_bits_no_assert(ptr noundef %0, i32 noundef %1, i32 noundef %2) #6 {
  %4 = alloca ptr, align 8
  %5 = alloca i32, align 4
  %6 = alloca i32, align 4
  %7 = alloca i32, align 4
  %8 = alloca i32, align 4
  store ptr %0, ptr %4, align 8, !tbaa !90
  store i32 %1, ptr %5, align 4, !tbaa !13
  store i32 %2, ptr %6, align 4, !tbaa !13
  call void @llvm.lifetime.start.p0(i64 4, ptr %7) #11
  call void @llvm.lifetime.start.p0(i64 4, ptr %8) #11
  %9 = load ptr, ptr %4, align 8, !tbaa !90
  %10 = getelementptr inbounds nuw %struct.PutBitContext, ptr %9, i32 0, i32 0
  %11 = load i32, ptr %10, align 8, !tbaa !196
  store i32 %11, ptr %7, align 4, !tbaa !13
  %12 = load ptr, ptr %4, align 8, !tbaa !90
  %13 = getelementptr inbounds nuw %struct.PutBitContext, ptr %12, i32 0, i32 1
  %14 = load i32, ptr %13, align 4, !tbaa !181
  store i32 %14, ptr %8, align 4, !tbaa !13
  %15 = load i32, ptr %5, align 4, !tbaa !13
  %16 = load i32, ptr %8, align 4, !tbaa !13
  %17 = icmp slt i32 %15, %16
  br i1 %17, label %18, label %27

18:                                               ; preds = %3
  %19 = load i32, ptr %7, align 4, !tbaa !13
  %20 = load i32, ptr %5, align 4, !tbaa !13
  %21 = shl i32 %19, %20
  %22 = load i32, ptr %6, align 4, !tbaa !13
  %23 = or i32 %21, %22
  store i32 %23, ptr %7, align 4, !tbaa !13
  %24 = load i32, ptr %5, align 4, !tbaa !13
  %25 = load i32, ptr %8, align 4, !tbaa !13
  %26 = sub nsw i32 %25, %24
  store i32 %26, ptr %8, align 4, !tbaa !13
  br label %65

27:                                               ; preds = %3
  %28 = load i32, ptr %8, align 4, !tbaa !13
  %29 = load i32, ptr %7, align 4, !tbaa !13
  %30 = shl i32 %29, %28
  store i32 %30, ptr %7, align 4, !tbaa !13
  %31 = load i32, ptr %6, align 4, !tbaa !13
  %32 = load i32, ptr %5, align 4, !tbaa !13
  %33 = load i32, ptr %8, align 4, !tbaa !13
  %34 = sub nsw i32 %32, %33
  %35 = lshr i32 %31, %34
  %36 = load i32, ptr %7, align 4, !tbaa !13
  %37 = or i32 %36, %35
  store i32 %37, ptr %7, align 4, !tbaa !13
  %38 = load ptr, ptr %4, align 8, !tbaa !90
  %39 = getelementptr inbounds nuw %struct.PutBitContext, ptr %38, i32 0, i32 4
  %40 = load ptr, ptr %39, align 8, !tbaa !194
  %41 = load ptr, ptr %4, align 8, !tbaa !90
  %42 = getelementptr inbounds nuw %struct.PutBitContext, ptr %41, i32 0, i32 3
  %43 = load ptr, ptr %42, align 8, !tbaa !195
  %44 = ptrtoint ptr %40 to i64
  %45 = ptrtoint ptr %43 to i64
  %46 = sub i64 %44, %45
  %47 = icmp uge i64 %46, 4
  br i1 %47, label %48, label %58

48:                                               ; preds = %27
  %49 = load i32, ptr %7, align 4, !tbaa !13
  %50 = call i32 @av_bswap32(i32 noundef %49) #14
  %51 = load ptr, ptr %4, align 8, !tbaa !90
  %52 = getelementptr inbounds nuw %struct.PutBitContext, ptr %51, i32 0, i32 3
  %53 = load ptr, ptr %52, align 8, !tbaa !195
  store i32 %50, ptr %53, align 1, !tbaa !60
  %54 = load ptr, ptr %4, align 8, !tbaa !90
  %55 = getelementptr inbounds nuw %struct.PutBitContext, ptr %54, i32 0, i32 3
  %56 = load ptr, ptr %55, align 8, !tbaa !195
  %57 = getelementptr inbounds nuw i8, ptr %56, i64 4
  store ptr %57, ptr %55, align 8, !tbaa !195
  br label %59

58:                                               ; preds = %27
  call void (ptr, i32, ptr, ...) @av_log(ptr noundef null, i32 noundef 16, ptr noundef @.str.14)
  br label %59

59:                                               ; preds = %58, %48
  %60 = load i32, ptr %5, align 4, !tbaa !13
  %61 = sub nsw i32 32, %60
  %62 = load i32, ptr %8, align 4, !tbaa !13
  %63 = add nsw i32 %62, %61
  store i32 %63, ptr %8, align 4, !tbaa !13
  %64 = load i32, ptr %6, align 4, !tbaa !13
  store i32 %64, ptr %7, align 4, !tbaa !13
  br label %65

65:                                               ; preds = %59, %18
  %66 = load i32, ptr %7, align 4, !tbaa !13
  %67 = load ptr, ptr %4, align 8, !tbaa !90
  %68 = getelementptr inbounds nuw %struct.PutBitContext, ptr %67, i32 0, i32 0
  store i32 %66, ptr %68, align 8, !tbaa !196
  %69 = load i32, ptr %8, align 4, !tbaa !13
  %70 = load ptr, ptr %4, align 8, !tbaa !90
  %71 = getelementptr inbounds nuw %struct.PutBitContext, ptr %70, i32 0, i32 1
  store i32 %69, ptr %71, align 4, !tbaa !181
  call void @llvm.lifetime.end.p0(i64 4, ptr %8) #11
  call void @llvm.lifetime.end.p0(i64 4, ptr %7) #11
  ret void
}

; Function Attrs: inlinehint nounwind uwtable
define internal void @put_bits(ptr noundef %0, i32 noundef %1, i32 noundef %2) #6 {
  %4 = alloca ptr, align 8
  %5 = alloca i32, align 4
  %6 = alloca i32, align 4
  store ptr %0, ptr %4, align 8, !tbaa !90
  store i32 %1, ptr %5, align 4, !tbaa !13
  store i32 %2, ptr %6, align 4, !tbaa !13
  %7 = load ptr, ptr %4, align 8, !tbaa !90
  %8 = load i32, ptr %5, align 4, !tbaa !13
  %9 = load i32, ptr %6, align 4, !tbaa !13
  call void @put_bits_no_assert(ptr noundef %7, i32 noundef %8, i32 noundef %9)
  ret void
}

; Function Attrs: alwaysinline nounwind willreturn memory(none) uwtable
define internal i32 @av_zero_extend_c(i32 noundef %0, i32 noundef %1) #9 {
  %3 = alloca i32, align 4
  %4 = alloca i32, align 4
  store i32 %0, ptr %3, align 4, !tbaa !13
  store i32 %1, ptr %4, align 4, !tbaa !13
  %5 = load i32, ptr %3, align 4, !tbaa !13
  %6 = load i32, ptr %4, align 4, !tbaa !13
  %7 = shl i32 1, %6
  %8 = sub i32 %7, 1
  %9 = and i32 %5, %8
  ret i32 %9
}

; Function Attrs: inlinehint nounwind uwtable
define internal i64 @av_make_q(i32 noundef %0, i32 noundef %1) #6 {
  %3 = alloca %struct.AVRational, align 4
  %4 = alloca i32, align 4
  %5 = alloca i32, align 4
  store i32 %0, ptr %4, align 4, !tbaa !13
  store i32 %1, ptr %5, align 4, !tbaa !13
  %6 = getelementptr inbounds nuw %struct.AVRational, ptr %3, i32 0, i32 0
  %7 = load i32, ptr %4, align 4, !tbaa !13
  store i32 %7, ptr %6, align 4, !tbaa !198
  %8 = getelementptr inbounds nuw %struct.AVRational, ptr %3, i32 0, i32 1
  %9 = load i32, ptr %5, align 4, !tbaa !13
  store i32 %9, ptr %8, align 4, !tbaa !197
  %10 = load i64, ptr %3, align 4
  ret i64 %10
}

; Function Attrs: inlinehint nounwind uwtable
define internal void @put_sbits(ptr noundef %0, i32 noundef %1, i32 noundef %2) #6 {
  %4 = alloca ptr, align 8
  %5 = alloca i32, align 4
  %6 = alloca i32, align 4
  store ptr %0, ptr %4, align 8, !tbaa !90
  store i32 %1, ptr %5, align 4, !tbaa !13
  store i32 %2, ptr %6, align 4, !tbaa !13
  %7 = load ptr, ptr %4, align 8, !tbaa !90
  %8 = load i32, ptr %5, align 4, !tbaa !13
  %9 = load i32, ptr %6, align 4, !tbaa !13
  %10 = load i32, ptr %5, align 4, !tbaa !13
  %11 = call i32 @av_zero_extend_c(i32 noundef %9, i32 noundef %10) #14
  call void @put_bits(ptr noundef %7, i32 noundef %8, i32 noundef %11)
  ret void
}

; Function Attrs: nounwind uwtable
define internal i32 @av_q2den(i64 %0, i32 noundef %1) #0 {
  %3 = alloca i32, align 4
  %4 = alloca %struct.AVRational, align 4
  %5 = alloca i32, align 4
  %6 = alloca %struct.AVRational, align 4
  %7 = alloca %struct.AVRational, align 4
  store i64 %0, ptr %4, align 4
  store i32 %1, ptr %5, align 4, !tbaa !13
  %8 = getelementptr inbounds nuw %struct.AVRational, ptr %4, i32 0, i32 1
  %9 = load i32, ptr %8, align 4, !tbaa !197
  %10 = icmp ne i32 %9, 0
  br i1 %10, label %11, label %16

11:                                               ; preds = %2
  %12 = getelementptr inbounds nuw %struct.AVRational, ptr %4, i32 0, i32 1
  %13 = load i32, ptr %12, align 4, !tbaa !197
  %14 = load i32, ptr %5, align 4, !tbaa !13
  %15 = icmp eq i32 %13, %14
  br i1 %15, label %16, label %19

16:                                               ; preds = %11, %2
  %17 = getelementptr inbounds nuw %struct.AVRational, ptr %4, i32 0, i32 0
  %18 = load i32, ptr %17, align 4, !tbaa !198
  store i32 %18, ptr %3, align 4
  br label %34

19:                                               ; preds = %11
  call void @llvm.lifetime.start.p0(i64 8, ptr %6) #11
  %20 = load i32, ptr %5, align 4, !tbaa !13
  %21 = call i64 @av_make_q(i32 noundef %20, i32 noundef 1)
  store i64 %21, ptr %7, align 4
  %22 = load i64, ptr %4, align 4
  %23 = load i64, ptr %7, align 4
  %24 = call i64 @av_mul_q(i64 %22, i64 %23) #14
  store i64 %24, ptr %6, align 4
  call void @llvm.memcpy.p0.p0.i64(ptr align 4 %4, ptr align 4 %6, i64 8, i1 false), !tbaa.struct !199
  call void @llvm.lifetime.end.p0(i64 8, ptr %6) #11
  %25 = getelementptr inbounds nuw %struct.AVRational, ptr %4, i32 0, i32 0
  %26 = load i32, ptr %25, align 4, !tbaa !198
  %27 = getelementptr inbounds nuw %struct.AVRational, ptr %4, i32 0, i32 1
  %28 = load i32, ptr %27, align 4, !tbaa !197
  %29 = ashr i32 %28, 1
  %30 = add nsw i32 %26, %29
  %31 = getelementptr inbounds nuw %struct.AVRational, ptr %4, i32 0, i32 1
  %32 = load i32, ptr %31, align 4, !tbaa !197
  %33 = sdiv i32 %30, %32
  store i32 %33, ptr %3, align 4
  br label %34

34:                                               ; preds = %19, %16
  %35 = load i32, ptr %3, align 4
  ret i32 %35
}

; Function Attrs: nounwind uwtable
define internal void @put_cie_xy(ptr noundef %0, i64 %1, i64 %2) #0 {
  %4 = alloca %struct.AVCIExy, align 4
  %5 = alloca ptr, align 8
  %6 = alloca i32, align 4
  %7 = getelementptr inbounds nuw { i64, i64 }, ptr %4, i32 0, i32 0
  store i64 %1, ptr %7, align 4
  %8 = getelementptr inbounds nuw { i64, i64 }, ptr %4, i32 0, i32 1
  store i64 %2, ptr %8, align 4
  store ptr %0, ptr %5, align 8, !tbaa !90
  call void @llvm.lifetime.start.p0(i64 4, ptr %6) #11
  store i32 32767, ptr %6, align 4, !tbaa !13
  %9 = load ptr, ptr %5, align 8, !tbaa !90
  %10 = getelementptr inbounds nuw %struct.AVCIExy, ptr %4, i32 0, i32 0
  %11 = load i64, ptr %10, align 4
  %12 = call i32 @av_q2den(i64 %11, i32 noundef 32767)
  call void @put_sbits(ptr noundef %9, i32 noundef 16, i32 noundef %12)
  %13 = load ptr, ptr %5, align 8, !tbaa !90
  %14 = getelementptr inbounds nuw %struct.AVCIExy, ptr %4, i32 0, i32 1
  %15 = load i64, ptr %14, align 4
  %16 = call i32 @av_q2den(i64 %15, i32 noundef 32767)
  call void @put_sbits(ptr noundef %13, i32 noundef 16, i32 noundef %16)
  call void @llvm.lifetime.end.p0(i64 4, ptr %6) #11
  ret void
}