; Function Attrs: nounwind uwtable
define internal fastcc void @put_cie_xy(ptr noundef nonnull captures(none) %0, i64 %1, i64 %2) unnamed_addr #0 {
  %.sroa.03.0.extract.trunc.i = trunc i64 %1 to i32
  %.not.i = icmp ult i64 %1, 4294967296
  %.sroa.5.0.extract.shift.i.mask = and i64 %1, -4294967296
  %4 = icmp eq i64 %.sroa.5.0.extract.shift.i.mask, 140733193388032
  %or.cond.i = or i1 %.not.i, %4
  br i1 %or.cond.i, label %av_q2den.exit, label %5

5:                                                ; preds = %3
  %6 = tail call i64 @av_mul_q(i64 %1, i64 4295000063) #15
  %.sroa.03.0.extract.trunc6.i = trunc i64 %6 to i32
  %.sroa.5.0.extract.shift7.i = lshr i64 %6, 32
  %.sroa.5.0.extract.trunc8.i = trunc nuw i64 %.sroa.5.0.extract.shift7.i to i32
  %7 = ashr i32 %.sroa.5.0.extract.trunc8.i, 1
  %8 = add nsw i32 %7, %.sroa.03.0.extract.trunc6.i
  %9 = sdiv i32 %8, %.sroa.5.0.extract.trunc8.i
  br label %av_q2den.exit

av_q2den.exit:                                    ; preds = %3, %5
  %.0.i = phi i32 [ %9, %5 ], [ %.sroa.03.0.extract.trunc.i, %3 ]
  %10 = and i32 %.0.i, 65535
  %11 = load i32, ptr %0, align 8, !tbaa !115
  %12 = getelementptr inbounds nuw i8, ptr %0, i64 4
  %13 = load i32, ptr %12, align 4, !tbaa !116
  %14 = icmp sgt i32 %13, 16
  br i1 %14, label %15, label %18

15:                                               ; preds = %av_q2den.exit
  %16 = shl i32 %11, 16
  %17 = or disjoint i32 %16, %10
  br label %put_sbits.exit

18:                                               ; preds = %av_q2den.exit
  %19 = getelementptr inbounds nuw i8, ptr %0, i64 24
  %20 = load ptr, ptr %19, align 8, !tbaa !108
  %21 = getelementptr inbounds nuw i8, ptr %0, i64 16
  %22 = load ptr, ptr %21, align 8, !tbaa !109
  %23 = ptrtoint ptr %20 to i64
  %24 = ptrtoint ptr %22 to i64
  %25 = sub i64 %23, %24
  %26 = icmp ugt i64 %25, 3
  br i1 %26, label %27, label %35

27:                                               ; preds = %18
  %28 = shl i32 %11, %13
  %29 = sub nsw i32 16, %13
  %30 = lshr i32 %10, %29
  %31 = or i32 %30, %28
  %32 = tail call i32 @llvm.bswap.i32(i32 %31)
  store i32 %32, ptr %22, align 1, !tbaa !51
  %33 = load ptr, ptr %21, align 8, !tbaa !109
  %34 = getelementptr inbounds nuw i8, ptr %33, i64 4
  store ptr %34, ptr %21, align 8, !tbaa !109
  br label %put_sbits.exit

35:                                               ; preds = %18
  tail call void (ptr, i32, ptr, ...) @av_log(ptr noundef null, i32 noundef 16, ptr noundef nonnull @.str.14) #12
  br label %put_sbits.exit

put_sbits.exit:                                   ; preds = %27, %35, %15
  %.sink = phi i32 [ -16, %15 ], [ 16, %35 ], [ 16, %27 ]
  %.026.i.i.i = phi i32 [ %17, %15 ], [ %10, %35 ], [ %10, %27 ]
  %36 = add nsw i32 %13, %.sink
  store i32 %.026.i.i.i, ptr %0, align 8, !tbaa !115
  store i32 %36, ptr %12, align 4, !tbaa !116
  %.sroa.03.0.extract.trunc.i2 = trunc i64 %2 to i32
  %.not.i3 = icmp ult i64 %2, 4294967296
  %.sroa.5.0.extract.shift.i4.mask = and i64 %2, -4294967296
  %37 = icmp eq i64 %.sroa.5.0.extract.shift.i4.mask, 140733193388032
  %or.cond.i6 = or i1 %.not.i3, %37
  br i1 %or.cond.i6, label %av_q2den.exit11, label %38

38:                                               ; preds = %put_sbits.exit
  %39 = tail call i64 @av_mul_q(i64 %2, i64 4295000063) #15
  %.sroa.03.0.extract.trunc6.i7 = trunc i64 %39 to i32
  %.sroa.5.0.extract.shift7.i8 = lshr i64 %39, 32
  %.sroa.5.0.extract.trunc8.i9 = trunc nuw i64 %.sroa.5.0.extract.shift7.i8 to i32
  %40 = ashr i32 %.sroa.5.0.extract.trunc8.i9, 1
  %41 = add nsw i32 %40, %.sroa.03.0.extract.trunc6.i7
  %42 = sdiv i32 %41, %.sroa.5.0.extract.trunc8.i9
  br label %av_q2den.exit11

av_q2den.exit11:                                  ; preds = %put_sbits.exit, %38
  %.0.i10 = phi i32 [ %42, %38 ], [ %.sroa.03.0.extract.trunc.i2, %put_sbits.exit ]
  %43 = and i32 %.0.i10, 65535
  %44 = icmp sgt i32 %36, 16
  br i1 %44, label %45, label %48

45:                                               ; preds = %av_q2den.exit11
  %46 = shl i32 %.026.i.i.i, 16
  %47 = or disjoint i32 %43, %46
  br label %put_sbits.exit15

48:                                               ; preds = %av_q2den.exit11
  %49 = getelementptr inbounds nuw i8, ptr %0, i64 24
  %50 = load ptr, ptr %49, align 8, !tbaa !108
  %51 = getelementptr inbounds nuw i8, ptr %0, i64 16
  %52 = load ptr, ptr %51, align 8, !tbaa !109
  %53 = ptrtoint ptr %50 to i64
  %54 = ptrtoint ptr %52 to i64
  %55 = sub i64 %53, %54
  %56 = icmp ugt i64 %55, 3
  br i1 %56, label %57, label %65

57:                                               ; preds = %48
  %58 = shl i32 %.026.i.i.i, %36
  %59 = sub nsw i32 16, %36
  %60 = lshr i32 %43, %59
  %61 = or i32 %60, %58
  %62 = tail call i32 @llvm.bswap.i32(i32 %61)
  store i32 %62, ptr %52, align 1, !tbaa !51
  %63 = load ptr, ptr %51, align 8, !tbaa !109
  %64 = getelementptr inbounds nuw i8, ptr %63, i64 4
  store ptr %64, ptr %51, align 8, !tbaa !109
  br label %put_sbits.exit15

65:                                               ; preds = %48
  tail call void (ptr, i32, ptr, ...) @av_log(ptr noundef null, i32 noundef 16, ptr noundef nonnull @.str.14) #12
  br label %put_sbits.exit15

put_sbits.exit15:                                 ; preds = %57, %65, %45
  %.sink16 = phi i32 [ -16, %45 ], [ 16, %65 ], [ 16, %57 ]
  %.026.i.i.i13 = phi i32 [ %47, %45 ], [ %43, %65 ], [ %43, %57 ]
  %66 = add nsw i32 %36, %.sink16
  store i32 %.026.i.i.i13, ptr %0, align 8, !tbaa !115
  store i32 %66, ptr %12, align 4, !tbaa !116
  ret void
}